
masked_d1.elf:     file format elf32-littlearm


Disassembly of section .text:

08000000 <vector_table>:
 8000000:	20002000 	.word	0x20002000
 8000004:	08000041 	.word	0x08000041
	...

08000040 <reset_handler>:
 8000040:	4805      	ldr	r0, [pc, #20]	@ (8000058 <reset_handler+0x18>)
 8000042:	2100      	movs	r1, #0
 8000044:	4a04      	ldr	r2, [pc, #16]	@ (8000058 <reset_handler+0x18>)
 8000046:	e001      	b.n	800004c <reset_handler+0xc>
 8000048:	6011      	str	r1, [r2, #0]
 800004a:	3204      	adds	r2, #4
 800004c:	4282      	cmp	r2, r0
 800004e:	d3fb      	bcc.n	8000048 <reset_handler+0x8>
 8000050:	f000 f862 	bl	8000118 <main>
 8000054:	e7fe      	b.n	8000054 <reset_handler+0x14>
 8000056:	0000      	.short	0x0000
 8000058:	20000004 	.word	0x20000004

0800005c <rm_encode_permnet>:
/* Baseline 32-bit PermNet-RM(1,7) encoder, identical to elmo_permnet.c. */
static void __attribute__((noinline))
rm_encode_permnet(uint32_t cw[4], uint8_t m)
{
    uint32_t m0 = (m >> 0) & 1u;
    uint32_t m1 = (m >> 1) & 1u;
 800005c:	2201      	movs	r2, #1
 800005e:	084b      	lsrs	r3, r1, #1
 8000060:	4013      	ands	r3, r2
    uint32_t m4 = (m >> 4) & 1u;
    uint32_t m5 = (m >> 5) & 1u;
    uint32_t m6 = (m >> 6) & 1u;
    uint32_t m7 = (m >> 7) & 1u;

    uint32_t lo0 = m0 | (m1 << 1) | (m2 << 2) | (m3 << 4)
 8000062:	4093      	lsls	r3, r2
{
 8000064:	b530      	push	{r4, r5, lr}
    uint32_t m2 = (m >> 2) & 1u;
 8000066:	088c      	lsrs	r4, r1, #2
 8000068:	4014      	ands	r4, r2
    uint32_t lo0 = m0 | (m1 << 1) | (m2 << 2) | (m3 << 4)
 800006a:	00a4      	lsls	r4, r4, #2
 800006c:	4323      	orrs	r3, r4
    uint32_t m0 = (m >> 0) & 1u;
 800006e:	000c      	movs	r4, r1
 8000070:	4014      	ands	r4, r2
    uint32_t lo0 = m0 | (m1 << 1) | (m2 << 2) | (m3 << 4)
 8000072:	4323      	orrs	r3, r4
    uint32_t m3 = (m >> 3) & 1u;
 8000074:	08cc      	lsrs	r4, r1, #3
 8000076:	4014      	ands	r4, r2
    uint32_t lo0 = m0 | (m1 << 1) | (m2 << 2) | (m3 << 4)
 8000078:	0124      	lsls	r4, r4, #4
 800007a:	4323      	orrs	r3, r4
    uint32_t m4 = (m >> 4) & 1u;
 800007c:	090c      	lsrs	r4, r1, #4
 800007e:	4014      	ands	r4, r2
                 | (m4 << 8) | (m5 << 16);
 8000080:	0224      	lsls	r4, r4, #8
 8000082:	4323      	orrs	r3, r4
    uint32_t m5 = (m >> 5) & 1u;
 8000084:	094c      	lsrs	r4, r1, #5
 8000086:	4014      	ands	r4, r2
                 | (m4 << 8) | (m5 << 16);
 8000088:	0424      	lsls	r4, r4, #16
    uint32_t lo1 = m6;
    uint32_t hi0 = m7;
    uint32_t hi1 = 0;

    lo0 ^= (lo0 & MASK32_K0) << 1;   lo1 ^= (lo1 & MASK32_K0) << 1;
 800008a:	4d10      	ldr	r5, [pc, #64]	@ (80000cc <rm_encode_permnet+0x70>)
    uint32_t lo0 = m0 | (m1 << 1) | (m2 << 2) | (m3 << 4)
 800008c:	4323      	orrs	r3, r4
    lo0 ^= (lo0 & MASK32_K0) << 1;   lo1 ^= (lo1 & MASK32_K0) << 1;
 800008e:	005c      	lsls	r4, r3, #1
 8000090:	402c      	ands	r4, r5
 8000092:	4063      	eors	r3, r4
    hi0 ^= (hi0 & MASK32_K0) << 1;   hi1 ^= (hi1 & MASK32_K0) << 1;

    lo0 ^= (lo0 & MASK32_K1) << 2;   lo1 ^= (lo1 & MASK32_K1) << 2;
 8000094:	4d0e      	ldr	r5, [pc, #56]	@ (80000d0 <rm_encode_permnet+0x74>)
 8000096:	009c      	lsls	r4, r3, #2
 8000098:	402c      	ands	r4, r5
 800009a:	405c      	eors	r4, r3
    hi0 ^= (hi0 & MASK32_K1) << 2;   hi1 ^= (hi1 & MASK32_K1) << 2;

    lo0 ^= (lo0 & MASK32_K2) << 4;   lo1 ^= (lo1 & MASK32_K2) << 4;
 800009c:	4d0d      	ldr	r5, [pc, #52]	@ (80000d4 <rm_encode_permnet+0x78>)
 800009e:	0123      	lsls	r3, r4, #4
 80000a0:	402b      	ands	r3, r5
 80000a2:	4063      	eors	r3, r4
    hi0 ^= (hi0 & MASK32_K2) << 4;   hi1 ^= (hi1 & MASK32_K2) << 4;

    lo0 ^= (lo0 & MASK32_K3) << 8;   lo1 ^= (lo1 & MASK32_K3) << 8;
 80000a4:	4d0c      	ldr	r5, [pc, #48]	@ (80000d8 <rm_encode_permnet+0x7c>)
 80000a6:	021c      	lsls	r4, r3, #8
 80000a8:	402c      	ands	r4, r5
 80000aa:	405c      	eors	r4, r3
    hi0 ^= (hi0 & MASK32_K3) << 8;   hi1 ^= (hi1 & MASK32_K3) << 8;

    lo0 ^= (lo0 & MASK32_K4) << 16;  lo1 ^= (lo1 & MASK32_K4) << 16;
 80000ac:	0423      	lsls	r3, r4, #16
 80000ae:	4063      	eors	r3, r4
    uint32_t m7 = (m >> 7) & 1u;
 80000b0:	09cc      	lsrs	r4, r1, #7
    uint32_t m6 = (m >> 6) & 1u;
 80000b2:	0989      	lsrs	r1, r1, #6
 80000b4:	4011      	ands	r1, r2
    hi0 ^= (hi0 & MASK32_K4) << 16;  hi1 ^= (hi1 & MASK32_K4) << 16;

    lo1 ^= lo0;
 80000b6:	4249      	negs	r1, r1
 80000b8:	4059      	eors	r1, r3
 80000ba:	4264      	negs	r4, r4
    hi1 ^= hi0;

    hi0 ^= lo0;
    hi1 ^= lo1;

    cw[0] = lo0;  cw[1] = lo1;
 80000bc:	6003      	str	r3, [r0, #0]
    hi0 ^= lo0;
 80000be:	4063      	eors	r3, r4
    hi1 ^= lo1;
 80000c0:	404c      	eors	r4, r1
    cw[0] = lo0;  cw[1] = lo1;
 80000c2:	6041      	str	r1, [r0, #4]
    cw[2] = hi0;  cw[3] = hi1;
 80000c4:	6083      	str	r3, [r0, #8]
 80000c6:	60c4      	str	r4, [r0, #12]
}
 80000c8:	bd30      	pop	{r4, r5, pc}
 80000ca:	46c0      	nop			@ (mov r8, r8)
 80000cc:	aaaaaaaa 	.word	0xaaaaaaaa
 80000d0:	cccccccc 	.word	0xcccccccc
 80000d4:	f0f0f0f0 	.word	0xf0f0f0f0
 80000d8:	ff00ff00 	.word	0xff00ff00

080000dc <rm_encode_permnet_masked_d1>:

/* Masked composition. The asm compiler barrier between the two inner
 * encodings prevents fusion, matching source/permnet_rm17_masked_d1.c. */
static void __attribute__((noinline))
rm_encode_permnet_masked_d1(uint32_t cw[4], uint8_t s0, uint8_t s1)
{
 80000dc:	b530      	push	{r4, r5, lr}
 80000de:	b089      	sub	sp, #36	@ 0x24
 80000e0:	0004      	movs	r4, r0
    uint32_t cw0[4];
    uint32_t cw1[4];

    rm_encode_permnet(cw0, s0);
 80000e2:	4668      	mov	r0, sp
{
 80000e4:	0015      	movs	r5, r2
    rm_encode_permnet(cw0, s0);
 80000e6:	f7ff ffb9 	bl	800005c <rm_encode_permnet>
    __asm__ volatile ("" ::: "memory");
    rm_encode_permnet(cw1, s1);
 80000ea:	0029      	movs	r1, r5
 80000ec:	a804      	add	r0, sp, #16
 80000ee:	f7ff ffb5 	bl	800005c <rm_encode_permnet>

    cw[0] = cw0[0] ^ cw1[0];
 80000f2:	9a04      	ldr	r2, [sp, #16]
 80000f4:	9b00      	ldr	r3, [sp, #0]
 80000f6:	4053      	eors	r3, r2
 80000f8:	6023      	str	r3, [r4, #0]
    cw[1] = cw0[1] ^ cw1[1];
 80000fa:	9a05      	ldr	r2, [sp, #20]
 80000fc:	9b01      	ldr	r3, [sp, #4]
 80000fe:	4053      	eors	r3, r2
 8000100:	6063      	str	r3, [r4, #4]
    cw[2] = cw0[2] ^ cw1[2];
 8000102:	9a06      	ldr	r2, [sp, #24]
 8000104:	9b02      	ldr	r3, [sp, #8]
 8000106:	4053      	eors	r3, r2
 8000108:	60a3      	str	r3, [r4, #8]
    cw[3] = cw0[3] ^ cw1[3];
 800010a:	9a07      	ldr	r2, [sp, #28]
 800010c:	9b03      	ldr	r3, [sp, #12]
 800010e:	4053      	eors	r3, r2
 8000110:	60e3      	str	r3, [r4, #12]
}
 8000112:	b009      	add	sp, #36	@ 0x24
 8000114:	bd30      	pop	{r4, r5, pc}
	...

08000118 <main>:

/* Force result to memory so the compiler doesn't optimise it away. */
static volatile uint32_t sink;

int main(void)
{
 8000118:	b5f0      	push	{r4, r5, r6, r7, lr}
     * re-runs on the same ELMO + Thumb-binary. */
    uint32_t prng = 0xA11C0DE0u;
    uint32_t cw[4];
    uint32_t acc = 0;

    for (int i = 0; i < 256; i++) {
 800011a:	2400      	movs	r4, #0
 800011c:	2780      	movs	r7, #128	@ 0x80
    uint32_t acc = 0;
 800011e:	0025      	movs	r5, r4
    uint32_t prng = 0xA11C0DE0u;
 8000120:	4e11      	ldr	r6, [pc, #68]	@ (8000168 <main+0x50>)
{
 8000122:	b085      	sub	sp, #20
    for (int i = 0; i < 256; i++) {
 8000124:	007f      	lsls	r7, r7, #1
        /* Advance PRNG and derive one 8-bit share per message. Drawing
         * outside the trigger window would add cycles of constant power
         * before the masked encode; keeping it inside means each trace
         * includes the PRNG call, which is consistent across all 256
         * messages and so does not bias per-bit correlations. */
        starttrigger();
 8000126:	f000 f827 	bl	8000178 <starttrigger>
        prng = prng * 1664525u + 1013904223u;
 800012a:	4b10      	ldr	r3, [pc, #64]	@ (800016c <main+0x54>)
        uint8_t s0 = (uint8_t)(prng >> 24);
        uint8_t s1 = (uint8_t)(s0 ^ (uint8_t)i);
        rm_encode_permnet_masked_d1(cw, s0, s1);
 800012c:	4668      	mov	r0, sp
        prng = prng * 1664525u + 1013904223u;
 800012e:	435e      	muls	r6, r3
 8000130:	4b0f      	ldr	r3, [pc, #60]	@ (8000170 <main+0x58>)
 8000132:	18f6      	adds	r6, r6, r3
        uint8_t s0 = (uint8_t)(prng >> 24);
 8000134:	0e31      	lsrs	r1, r6, #24
        uint8_t s1 = (uint8_t)(s0 ^ (uint8_t)i);
 8000136:	000a      	movs	r2, r1
 8000138:	4062      	eors	r2, r4
        rm_encode_permnet_masked_d1(cw, s0, s1);
 800013a:	b2d2      	uxtb	r2, r2
 800013c:	f7ff ffce 	bl	80000dc <rm_encode_permnet_masked_d1>
        endtrigger();
 8000140:	f000 f823 	bl	800018a <endtrigger>

        acc ^= cw[0] ^ cw[1] ^ cw[2] ^ cw[3];
 8000144:	9a01      	ldr	r2, [sp, #4]
 8000146:	9b00      	ldr	r3, [sp, #0]
    for (int i = 0; i < 256; i++) {
 8000148:	3401      	adds	r4, #1
        acc ^= cw[0] ^ cw[1] ^ cw[2] ^ cw[3];
 800014a:	4053      	eors	r3, r2
 800014c:	9a02      	ldr	r2, [sp, #8]
 800014e:	4053      	eors	r3, r2
 8000150:	9a03      	ldr	r2, [sp, #12]
 8000152:	4053      	eors	r3, r2
 8000154:	405d      	eors	r5, r3
    for (int i = 0; i < 256; i++) {
 8000156:	42bc      	cmp	r4, r7
 8000158:	d1e5      	bne.n	8000126 <main+0xe>
    }

    sink = acc;
 800015a:	4b06      	ldr	r3, [pc, #24]	@ (8000174 <main+0x5c>)
 800015c:	601d      	str	r5, [r3, #0]
    endprogram();
 800015e:	f000 f84f 	bl	8000200 <endprogram>
    return 0;
}
 8000162:	2000      	movs	r0, #0
 8000164:	b005      	add	sp, #20
 8000166:	bdf0      	pop	{r4, r5, r6, r7, pc}
 8000168:	a11c0de0 	.word	0xa11c0de0
 800016c:	0019660d 	.word	0x0019660d
 8000170:	3c6ef35f 	.word	0x3c6ef35f
 8000174:	20000000 	.word	0x20000000

08000178 <starttrigger>:
 8000178:	b4ff      	push	{r0, r1, r2, r3, r4, r5, r6, r7}
 800017a:	24e0      	movs	r4, #224	@ 0xe0
 800017c:	0624      	lsls	r4, r4, #24
 800017e:	2504      	movs	r5, #4
 8000180:	406c      	eors	r4, r5
 8000182:	2501      	movs	r5, #1
 8000184:	6025      	str	r5, [r4, #0]
 8000186:	bcff      	pop	{r0, r1, r2, r3, r4, r5, r6, r7}
 8000188:	4770      	bx	lr

0800018a <endtrigger>:
 800018a:	b4ff      	push	{r0, r1, r2, r3, r4, r5, r6, r7}
 800018c:	24e0      	movs	r4, #224	@ 0xe0
 800018e:	0624      	lsls	r4, r4, #24
 8000190:	2504      	movs	r5, #4
 8000192:	406c      	eors	r4, r5
 8000194:	2500      	movs	r5, #0
 8000196:	6025      	str	r5, [r4, #0]
 8000198:	bcff      	pop	{r0, r1, r2, r3, r4, r5, r6, r7}
 800019a:	4770      	bx	lr

0800019c <readbyte>:
 800019c:	b4ff      	push	{r0, r1, r2, r3, r4, r5, r6, r7}
 800019e:	24e1      	movs	r4, #225	@ 0xe1
 80001a0:	0624      	lsls	r4, r4, #24
 80001a2:	6821      	ldr	r1, [r4, #0]
 80001a4:	7001      	strb	r1, [r0, #0]
 80001a6:	bcff      	pop	{r0, r1, r2, r3, r4, r5, r6, r7}
 80001a8:	4770      	bx	lr

080001aa <LoadN>:
 80001aa:	b4ff      	push	{r0, r1, r2, r3, r4, r5, r6, r7}
 80001ac:	24e1      	movs	r4, #225	@ 0xe1
 80001ae:	0624      	lsls	r4, r4, #24
 80001b0:	2510      	movs	r5, #16
 80001b2:	406c      	eors	r4, r5
 80001b4:	6821      	ldr	r1, [r4, #0]
 80001b6:	6001      	str	r1, [r0, #0]
 80001b8:	bcff      	pop	{r0, r1, r2, r3, r4, r5, r6, r7}
 80001ba:	4770      	bx	lr

080001bc <randbyte>:
 80001bc:	b4ff      	push	{r0, r1, r2, r3, r4, r5, r6, r7}
 80001be:	24e1      	movs	r4, #225	@ 0xe1
 80001c0:	0624      	lsls	r4, r4, #24
 80001c2:	2504      	movs	r5, #4
 80001c4:	406c      	eors	r4, r5
 80001c6:	6821      	ldr	r1, [r4, #0]
 80001c8:	7001      	strb	r1, [r0, #0]
 80001ca:	bcff      	pop	{r0, r1, r2, r3, r4, r5, r6, r7}
 80001cc:	4770      	bx	lr

080001ce <getstart>:
 80001ce:	b4ff      	push	{r0, r1, r2, r3, r4, r5, r6, r7}
 80001d0:	24e1      	movs	r4, #225	@ 0xe1
 80001d2:	0624      	lsls	r4, r4, #24
 80001d4:	2508      	movs	r5, #8
 80001d6:	406c      	eors	r4, r5
 80001d8:	6821      	ldr	r1, [r4, #0]
 80001da:	6001      	str	r1, [r0, #0]
 80001dc:	bcff      	pop	{r0, r1, r2, r3, r4, r5, r6, r7}
 80001de:	4770      	bx	lr

080001e0 <getruncount>:
 80001e0:	b4ff      	push	{r0, r1, r2, r3, r4, r5, r6, r7}
 80001e2:	24e1      	movs	r4, #225	@ 0xe1
 80001e4:	0624      	lsls	r4, r4, #24
 80001e6:	250c      	movs	r5, #12
 80001e8:	406c      	eors	r4, r5
 80001ea:	6821      	ldr	r1, [r4, #0]
 80001ec:	6001      	str	r1, [r0, #0]
 80001ee:	bcff      	pop	{r0, r1, r2, r3, r4, r5, r6, r7}
 80001f0:	4770      	bx	lr

080001f2 <printbyte>:
 80001f2:	b4ff      	push	{r0, r1, r2, r3, r4, r5, r6, r7}
 80001f4:	24e0      	movs	r4, #224	@ 0xe0
 80001f6:	0624      	lsls	r4, r4, #24
 80001f8:	7805      	ldrb	r5, [r0, #0]
 80001fa:	6025      	str	r5, [r4, #0]
 80001fc:	bcff      	pop	{r0, r1, r2, r3, r4, r5, r6, r7}
 80001fe:	4770      	bx	lr

08000200 <endprogram>:
 8000200:	b4ff      	push	{r0, r1, r2, r3, r4, r5, r6, r7}
 8000202:	24f0      	movs	r4, #240	@ 0xf0
 8000204:	0624      	lsls	r4, r4, #24
 8000206:	2500      	movs	r5, #0
 8000208:	6025      	str	r5, [r4, #0]
 800020a:	bcff      	pop	{r0, r1, r2, r3, r4, r5, r6, r7}
 800020c:	4770      	bx	lr

0800020e <initialisemaskflow>:
 800020e:	b4ff      	push	{r0, r1, r2, r3, r4, r5, r6, r7}
 8000210:	24e0      	movs	r4, #224	@ 0xe0
 8000212:	0624      	lsls	r4, r4, #24
 8000214:	2540      	movs	r5, #64	@ 0x40
 8000216:	406c      	eors	r4, r5
 8000218:	6020      	str	r0, [r4, #0]
 800021a:	bcff      	pop	{r0, r1, r2, r3, r4, r5, r6, r7}
 800021c:	4770      	bx	lr

0800021e <resetmaskflow>:
 800021e:	b4ff      	push	{r0, r1, r2, r3, r4, r5, r6, r7}
 8000220:	24e0      	movs	r4, #224	@ 0xe0
 8000222:	0624      	lsls	r4, r4, #24
 8000224:	2542      	movs	r5, #66	@ 0x42
 8000226:	406c      	eors	r4, r5
 8000228:	2500      	movs	r5, #0
 800022a:	6025      	str	r5, [r4, #0]
 800022c:	bcff      	pop	{r0, r1, r2, r3, r4, r5, r6, r7}
 800022e:	4770      	bx	lr

08000230 <setmaskflowstart>:
 8000230:	b4ff      	push	{r0, r1, r2, r3, r4, r5, r6, r7}
 8000232:	24e0      	movs	r4, #224	@ 0xe0
 8000234:	0624      	lsls	r4, r4, #24
 8000236:	2544      	movs	r5, #68	@ 0x44
 8000238:	406c      	eors	r4, r5
 800023a:	6020      	str	r0, [r4, #0]
 800023c:	bcff      	pop	{r0, r1, r2, r3, r4, r5, r6, r7}
 800023e:	4770      	bx	lr

08000240 <resetdatafile>:
 8000240:	b4ff      	push	{r0, r1, r2, r3, r4, r5, r6, r7}
 8000242:	24e0      	movs	r4, #224	@ 0xe0
 8000244:	0624      	lsls	r4, r4, #24
 8000246:	2546      	movs	r5, #70	@ 0x46
 8000248:	406c      	eors	r4, r5
 800024a:	2500      	movs	r5, #0
 800024c:	6025      	str	r5, [r4, #0]
 800024e:	bcff      	pop	{r0, r1, r2, r3, r4, r5, r6, r7}
 8000250:	4770      	bx	lr
	...
